
md5.riscv:     file format elf32-littleriscv

Sections:
Idx Name          Size      VMA       LMA       File off  Algn
  0 .text.isr     00000104  00000080  00000080  00000080  2**0
                  CONTENTS, ALLOC, LOAD, READONLY, CODE
  1 .text.init    000000a4  00000200  00000200  00000200  2**0
                  CONTENTS, ALLOC, LOAD, READONLY, CODE
  2 .text         00000744  000002a4  000002a4  000002a4  2**2
                  CONTENTS, ALLOC, LOAD, READONLY, CODE
  3 .text.startup 00000044  000009e8  000009e8  000009e8  2**2
                  CONTENTS, ALLOC, LOAD, READONLY, CODE
  4 .rodata       00000200  00000a2c  00000a2c  00000a2c  2**2
                  CONTENTS, ALLOC, LOAD, READONLY, DATA
  5 .rodata.str1.4 0000000d  00000c2c  00000c2c  00000c2c  2**2
                  CONTENTS, ALLOC, LOAD, READONLY, DATA
  6 .data         00000028  00000c3c  00000c3c  00000c3c  2**2
                  CONTENTS, ALLOC, LOAD, DATA
  7 .comment      00000012  00000000  00000000  00000c64  2**0
                  CONTENTS, READONLY
  8 .riscv.attributes 0000001c  00000000  00000000  00000c76  2**0
                  CONTENTS, READONLY

Disassembly of section .text.isr:

00000080 <isr_entry>:
  80:	00112023          	sw	ra,0(sp)
  84:	fe312e23          	sw	gp,-4(sp)
  88:	fe412c23          	sw	tp,-8(sp)
  8c:	fe512a23          	sw	t0,-12(sp)
  90:	fe612823          	sw	t1,-16(sp)
  94:	fe712623          	sw	t2,-20(sp)
  98:	fe812423          	sw	s0,-24(sp)
  9c:	fe912223          	sw	s1,-28(sp)
  a0:	fea12023          	sw	a0,-32(sp)
  a4:	fcb12e23          	sw	a1,-36(sp)
  a8:	fcc12c23          	sw	a2,-40(sp)
  ac:	fcd12a23          	sw	a3,-44(sp)
  b0:	fce12823          	sw	a4,-48(sp)
  b4:	fcf12623          	sw	a5,-52(sp)
  b8:	fd012423          	sw	a6,-56(sp)
  bc:	fd112223          	sw	a7,-60(sp)
  c0:	fd212023          	sw	s2,-64(sp)
  c4:	fb312e23          	sw	s3,-68(sp)
  c8:	fb412c23          	sw	s4,-72(sp)
  cc:	fb512a23          	sw	s5,-76(sp)
  d0:	fb612823          	sw	s6,-80(sp)
  d4:	fb712623          	sw	s7,-84(sp)
  d8:	fb812423          	sw	s8,-88(sp)
  dc:	fb912223          	sw	s9,-92(sp)
  e0:	fba12023          	sw	s10,-96(sp)
  e4:	f9b12e23          	sw	s11,-100(sp)
  e8:	f9c12c23          	sw	t3,-104(sp)
  ec:	f9d12a23          	sw	t4,-108(sp)
  f0:	f9e12823          	sw	t5,-112(sp)
  f4:	f9f12623          	sw	t6,-116(sp)
  f8:	f8010113          	addi	sp,sp,-128
  fc:	00002573          	csrr	a0,ustatus
 100:	091000ef          	jal	ra,990 <__int_handler>
 104:	08010113          	addi	sp,sp,128
 108:	00012083          	lw	ra,0(sp)
 10c:	ffc12183          	lw	gp,-4(sp)
 110:	ff812203          	lw	tp,-8(sp)
 114:	ff412283          	lw	t0,-12(sp)
 118:	ff012303          	lw	t1,-16(sp)
 11c:	fec12383          	lw	t2,-20(sp)
 120:	fe812403          	lw	s0,-24(sp)
 124:	fe412483          	lw	s1,-28(sp)
 128:	fe012503          	lw	a0,-32(sp)
 12c:	fdc12583          	lw	a1,-36(sp)
 130:	fd812603          	lw	a2,-40(sp)
 134:	fd412683          	lw	a3,-44(sp)
 138:	fd012703          	lw	a4,-48(sp)
 13c:	fcc12783          	lw	a5,-52(sp)
 140:	fc812803          	lw	a6,-56(sp)
 144:	fc412883          	lw	a7,-60(sp)
 148:	fc012903          	lw	s2,-64(sp)
 14c:	fbc12983          	lw	s3,-68(sp)
 150:	fb812a03          	lw	s4,-72(sp)
 154:	fb412a83          	lw	s5,-76(sp)
 158:	fb012b03          	lw	s6,-80(sp)
 15c:	fac12b83          	lw	s7,-84(sp)
 160:	fa812c03          	lw	s8,-88(sp)
 164:	fa412c83          	lw	s9,-92(sp)
 168:	fa012d03          	lw	s10,-96(sp)
 16c:	f9c12d83          	lw	s11,-100(sp)
 170:	f9812e03          	lw	t3,-104(sp)
 174:	f9412e83          	lw	t4,-108(sp)
 178:	f9012f03          	lw	t5,-112(sp)
 17c:	f8c12f83          	lw	t6,-116(sp)
 180:	30200073          	mret

Disassembly of section .text.init:

00000200 <_start>:
 200:	00000093          	li	ra,0
 204:	00000113          	li	sp,0
 208:	00000193          	li	gp,0
 20c:	00000213          	li	tp,0
 210:	00000293          	li	t0,0
 214:	00000313          	li	t1,0
 218:	00000393          	li	t2,0
 21c:	00000413          	li	s0,0
 220:	00000493          	li	s1,0
 224:	00000513          	li	a0,0
 228:	00000593          	li	a1,0
 22c:	00000613          	li	a2,0
 230:	00000693          	li	a3,0
 234:	00000713          	li	a4,0
 238:	00000793          	li	a5,0
 23c:	00000813          	li	a6,0
 240:	00000893          	li	a7,0
 244:	00000913          	li	s2,0
 248:	00000993          	li	s3,0
 24c:	00000a13          	li	s4,0
 250:	00000a93          	li	s5,0
 254:	00000b13          	li	s6,0
 258:	00000b93          	li	s7,0
 25c:	00000c13          	li	s8,0
 260:	00000c93          	li	s9,0
 264:	00000d13          	li	s10,0
 268:	00000d93          	li	s11,0
 26c:	00000e13          	li	t3,0
 270:	00000e93          	li	t4,0
 274:	00000f13          	li	t5,0
 278:	00000f93          	li	t6,0
 27c:	00001197          	auipc	gp,0x1
 280:	1e818193          	addi	gp,gp,488 # 1464 <__global_pointer$>
 284:	83f18213          	addi	tp,gp,-1985 # ca3 <_end+0x3f>
 288:	fc027213          	andi	tp,tp,-64
 28c:	00e51613          	slli	a2,a0,0xe
 290:	00c20233          	add	tp,tp,a2
 294:	00150113          	addi	sp,a0,1
 298:	00e11113          	slli	sp,sp,0xe
 29c:	00410133          	add	sp,sp,tp
 2a0:	7480006f          	j	9e8 <main>

Disassembly of section .text:

000002a4 <concat>:
 2a4:	00859593          	slli	a1,a1,0x8
 2a8:	01061613          	slli	a2,a2,0x10
 2ac:	00b56533          	or	a0,a0,a1
 2b0:	01869693          	slli	a3,a3,0x18
 2b4:	00c56533          	or	a0,a0,a2
 2b8:	00d56533          	or	a0,a0,a3
 2bc:	00008067          	ret

000002c0 <calculateMaxLength>:
 2c0:	00850793          	addi	a5,a0,8
 2c4:	41f7d513          	srai	a0,a5,0x1f
 2c8:	03f57513          	andi	a0,a0,63
 2cc:	00f50533          	add	a0,a0,a5
 2d0:	03f7f793          	andi	a5,a5,63
 2d4:	40655513          	srai	a0,a0,0x6
 2d8:	00078463          	beqz	a5,2e0 <calculateMaxLength+0x20>
 2dc:	00150513          	addi	a0,a0,1
 2e0:	00651513          	slli	a0,a0,0x6
 2e4:	00008067          	ret

000002e8 <leftrotate>:
 2e8:	00100713          	li	a4,1
 2ec:	02000793          	li	a5,32
 2f0:	00b71733          	sll	a4,a4,a1
 2f4:	40b787b3          	sub	a5,a5,a1
 2f8:	fff70693          	addi	a3,a4,-1
 2fc:	00f557b3          	srl	a5,a0,a5
 300:	40e00733          	neg	a4,a4
 304:	00b51533          	sll	a0,a0,a1
 308:	00d7f7b3          	and	a5,a5,a3
 30c:	00e57533          	and	a0,a0,a4
 310:	00a7e533          	or	a0,a5,a0
 314:	00008067          	ret

00000318 <md5>:
 318:	d4010113          	addi	sp,sp,-704
 31c:	2a812e23          	sw	s0,700(sp)
 320:	2a912c23          	sw	s1,696(sp)
 324:	2b212a23          	sw	s2,692(sp)
 328:	2b312823          	sw	s3,688(sp)
 32c:	2b412623          	sw	s4,684(sp)
 330:	2b512423          	sw	s5,680(sp)
 334:	2b612223          	sw	s6,676(sp)
 338:	2b712023          	sw	s7,672(sp)
 33c:	29812e23          	sw	s8,668(sp)
 340:	29912c23          	sw	s9,664(sp)
 344:	29a12a23          	sw	s10,660(sp)
 348:	29b12823          	sw	s11,656(sp)
 34c:	02a12423          	sw	a0,40(sp)
 350:	00058413          	mv	s0,a1
 354:	00060293          	mv	t0,a2
 358:	00000797          	auipc	a5,0x0
 35c:	6d478793          	addi	a5,a5,1748 # a2c <main+0x44>
 360:	09010713          	addi	a4,sp,144
 364:	00000817          	auipc	a6,0x0
 368:	7c880813          	addi	a6,a6,1992 # b2c <main+0x144>
 36c:	0007a503          	lw	a0,0(a5)
 370:	0047a583          	lw	a1,4(a5)
 374:	0087a603          	lw	a2,8(a5)
 378:	00c7a683          	lw	a3,12(a5)
 37c:	00a72023          	sw	a0,0(a4)
 380:	00b72223          	sw	a1,4(a4)
 384:	00c72423          	sw	a2,8(a4)
 388:	00d72623          	sw	a3,12(a4)
 38c:	01078793          	addi	a5,a5,16
 390:	01070713          	addi	a4,a4,16
 394:	fd079ce3          	bne	a5,a6,36c <md5+0x54>
 398:	00000797          	auipc	a5,0x0
 39c:	79478793          	addi	a5,a5,1940 # b2c <main+0x144>
 3a0:	19010713          	addi	a4,sp,400
 3a4:	00001817          	auipc	a6,0x1
 3a8:	88880813          	addi	a6,a6,-1912 # c2c <main+0x244>
 3ac:	0007a503          	lw	a0,0(a5)
 3b0:	0047a583          	lw	a1,4(a5)
 3b4:	0087a603          	lw	a2,8(a5)
 3b8:	00c7a683          	lw	a3,12(a5)
 3bc:	00a72023          	sw	a0,0(a4)
 3c0:	00b72223          	sw	a1,4(a4)
 3c4:	00c72423          	sw	a2,8(a4)
 3c8:	00d72623          	sw	a3,12(a4)
 3cc:	01078793          	addi	a5,a5,16
 3d0:	01070713          	addi	a4,a4,16
 3d4:	fd079ce3          	bne	a5,a6,3ac <md5+0x94>
 3d8:	00828793          	addi	a5,t0,8
 3dc:	41f7d713          	srai	a4,a5,0x1f
 3e0:	03f77713          	andi	a4,a4,63
 3e4:	00f70733          	add	a4,a4,a5
 3e8:	40675713          	srai	a4,a4,0x6
 3ec:	03f7f793          	andi	a5,a5,63
 3f0:	00e12e23          	sw	a4,28(sp)
 3f4:	30078c63          	beqz	a5,70c <md5+0x3f4>
 3f8:	01c12783          	lw	a5,28(sp)
 3fc:	00178793          	addi	a5,a5,1
 400:	00f12e23          	sw	a5,28(sp)
 404:	00679c13          	slli	s8,a5,0x6
 408:	03f00793          	li	a5,63
 40c:	3187d663          	bge	a5,s8,718 <md5+0x400>
 410:	00329793          	slli	a5,t0,0x3
 414:	02f12023          	sw	a5,32(sp)
 418:	103257b7          	lui	a5,0x10325
 41c:	47678793          	addi	a5,a5,1142 # 10325476 <__global_pointer$+0x10324012>
 420:	00f12423          	sw	a5,8(sp)
 424:	98bae7b7          	lui	a5,0x98bae
 428:	cfe78793          	addi	a5,a5,-770 # 98badcfe <__global_pointer$+0x98bac89a>
 42c:	00f12623          	sw	a5,12(sp)
 430:	efcdb7b7          	lui	a5,0xefcdb
 434:	b8978793          	addi	a5,a5,-1143 # efcdab89 <__global_pointer$+0xefcd9725>
 438:	00f12a23          	sw	a5,20(sp)
 43c:	674527b7          	lui	a5,0x67452
 440:	05010b13          	addi	s6,sp,80
 444:	30178793          	addi	a5,a5,769 # 67452301 <__global_pointer$+0x67450e9d>
 448:	03612223          	sw	s6,36(sp)
 44c:	04000a93          	li	s5,64
 450:	00012c23          	sw	zero,24(sp)
 454:	00f12823          	sw	a5,16(sp)
 458:	04010393          	addi	t2,sp,64
 45c:	ff8c0a13          	addi	s4,s8,-8
 460:	ffcc0c93          	addi	s9,s8,-4
 464:	f8000b93          	li	s7,-128
 468:	00f00e93          	li	t4,15
 46c:	00100993          	li	s3,1
 470:	02000913          	li	s2,32
 474:	04000493          	li	s1,64
 478:	01812783          	lw	a5,24(sp)
 47c:	02012583          	lw	a1,32(sp)
 480:	00679613          	slli	a2,a5,0x6
 484:	03c10713          	addi	a4,sp,60
 488:	00060793          	mv	a5,a2
 48c:	00f406b3          	add	a3,s0,a5
 490:	1057d463          	bge	a5,t0,598 <md5+0x280>
 494:	0006c683          	lbu	a3,0(a3)
 498:	00d70023          	sb	a3,0(a4)
 49c:	00170713          	addi	a4,a4,1
 4a0:	00178793          	addi	a5,a5,1
 4a4:	fee394e3          	bne	t2,a4,48c <md5+0x174>
 4a8:	03c12703          	lw	a4,60(sp)
 4ac:	00cb07b3          	add	a5,s6,a2
 4b0:	00460613          	addi	a2,a2,4
 4b4:	00e7a023          	sw	a4,0(a5)
 4b8:	fcca96e3          	bne	s5,a2,484 <md5+0x16c>
 4bc:	00812503          	lw	a0,8(sp)
 4c0:	00c12303          	lw	t1,12(sp)
 4c4:	01412583          	lw	a1,20(sp)
 4c8:	01012703          	lw	a4,16(sp)
 4cc:	19010893          	addi	a7,sp,400
 4d0:	09010813          	addi	a6,sp,144
 4d4:	00000e13          	li	t3,0
 4d8:	00500f93          	li	t6,5
 4dc:	00100f13          	li	t5,1
 4e0:	00000693          	li	a3,0
 4e4:	08c0006f          	j	570 <md5+0x258>
 4e8:	26fef863          	bgeu	t4,a5,758 <md5+0x440>
 4ec:	00664633          	xor	a2,a2,t1
 4f0:	00fe7d13          	andi	s10,t3,15
 4f4:	27befc63          	bgeu	t4,s11,76c <md5+0x454>
 4f8:	29010793          	addi	a5,sp,656
 4fc:	002d1d13          	slli	s10,s10,0x2
 500:	0008ad83          	lw	s11,0(a7)
 504:	01a78d33          	add	s10,a5,s10
 508:	dc0d2783          	lw	a5,-576(s10)
 50c:	00081d03          	lh	s10,0(a6)
 510:	01b60633          	add	a2,a2,s11
 514:	00f607b3          	add	a5,a2,a5
 518:	00e787b3          	add	a5,a5,a4
 51c:	01a99633          	sll	a2,s3,s10
 520:	41a90733          	sub	a4,s2,s10
 524:	00e7d733          	srl	a4,a5,a4
 528:	fff60d93          	addi	s11,a2,-1
 52c:	01a797b3          	sll	a5,a5,s10
 530:	40c00633          	neg	a2,a2
 534:	01b77733          	and	a4,a4,s11
 538:	00c7f7b3          	and	a5,a5,a2
 53c:	00f767b3          	or	a5,a4,a5
 540:	00168693          	addi	a3,a3,1
 544:	00b787b3          	add	a5,a5,a1
 548:	00050713          	mv	a4,a0
 54c:	00488893          	addi	a7,a7,4
 550:	00480813          	addi	a6,a6,4
 554:	005f0f13          	addi	t5,t5,5
 558:	003f8f93          	addi	t6,t6,3
 55c:	007e0e13          	addi	t3,t3,7
 560:	06968663          	beq	a3,s1,5cc <md5+0x2b4>
 564:	00030513          	mv	a0,t1
 568:	00058313          	mv	t1,a1
 56c:	00078593          	mv	a1,a5
 570:	fff54613          	not	a2,a0
 574:	ff068793          	addi	a5,a3,-16
 578:	fe068d93          	addi	s11,a3,-32
 57c:	00b66633          	or	a2,a2,a1
 580:	00068d13          	mv	s10,a3
 584:	f6dec2e3          	blt	t4,a3,4e8 <md5+0x1d0>
 588:	00a34633          	xor	a2,t1,a0
 58c:	00b67633          	and	a2,a2,a1
 590:	00a64633          	xor	a2,a2,a0
 594:	f65ff06f          	j	4f8 <md5+0x1e0>
 598:	02578663          	beq	a5,t0,5c4 <md5+0x2ac>
 59c:	0347c063          	blt	a5,s4,5bc <md5+0x2a4>
 5a0:	418786b3          	sub	a3,a5,s8
 5a4:	00d386b3          	add	a3,t2,a3
 5a8:	0197da63          	bge	a5,s9,5bc <md5+0x2a4>
 5ac:	04b12023          	sw	a1,64(sp)
 5b0:	0086c683          	lbu	a3,8(a3)
 5b4:	00d70023          	sb	a3,0(a4)
 5b8:	ee5ff06f          	j	49c <md5+0x184>
 5bc:	00070023          	sb	zero,0(a4)
 5c0:	eddff06f          	j	49c <md5+0x184>
 5c4:	01770023          	sb	s7,0(a4)
 5c8:	ed5ff06f          	j	49c <md5+0x184>
 5cc:	01012703          	lw	a4,16(sp)
 5d0:	00078d93          	mv	s11,a5
 5d4:	01812783          	lw	a5,24(sp)
 5d8:	00a70733          	add	a4,a4,a0
 5dc:	00e12823          	sw	a4,16(sp)
 5e0:	01412703          	lw	a4,20(sp)
 5e4:	00178793          	addi	a5,a5,1
 5e8:	00f12c23          	sw	a5,24(sp)
 5ec:	01b70733          	add	a4,a4,s11
 5f0:	00e12a23          	sw	a4,20(sp)
 5f4:	00c12703          	lw	a4,12(sp)
 5f8:	fc0b0b13          	addi	s6,s6,-64
 5fc:	040a8a93          	addi	s5,s5,64
 600:	00b70733          	add	a4,a4,a1
 604:	00e12623          	sw	a4,12(sp)
 608:	00812703          	lw	a4,8(sp)
 60c:	00670733          	add	a4,a4,t1
 610:	00e12423          	sw	a4,8(sp)
 614:	01c12703          	lw	a4,28(sp)
 618:	e6e7c0e3          	blt	a5,a4,478 <md5+0x160>
 61c:	01412783          	lw	a5,20(sp)
 620:	02412883          	lw	a7,36(sp)
 624:	01012703          	lw	a4,16(sp)
 628:	04f12a23          	sw	a5,84(sp)
 62c:	00c12783          	lw	a5,12(sp)
 630:	ffff0837          	lui	a6,0xffff0
 634:	00010537          	lui	a0,0x10
 638:	04f12c23          	sw	a5,88(sp)
 63c:	00812783          	lw	a5,8(sp)
 640:	00088613          	mv	a2,a7
 644:	0ff80813          	addi	a6,a6,255 # ffff00ff <__global_pointer$+0xfffeec9b>
 648:	04f12e23          	sw	a5,92(sp)
 64c:	02c12783          	lw	a5,44(sp)
 650:	fff50513          	addi	a0,a0,-1 # ffff <__global_pointer$+0xeb9b>
 654:	01875593          	srli	a1,a4,0x18
 658:	f007f793          	andi	a5,a5,-256
 65c:	01075693          	srli	a3,a4,0x10
 660:	00b7e7b3          	or	a5,a5,a1
 664:	01071593          	slli	a1,a4,0x10
 668:	0105d593          	srli	a1,a1,0x10
 66c:	0ff6f693          	andi	a3,a3,255
 670:	00871713          	slli	a4,a4,0x8
 674:	00869693          	slli	a3,a3,0x8
 678:	0107f7b3          	and	a5,a5,a6
 67c:	0085d593          	srli	a1,a1,0x8
 680:	00d7e7b3          	or	a5,a5,a3
 684:	00b76733          	or	a4,a4,a1
 688:	01071713          	slli	a4,a4,0x10
 68c:	00a7f7b3          	and	a5,a5,a0
 690:	00e7e7b3          	or	a5,a5,a4
 694:	00f3a023          	sw	a5,0(t2)
 698:	00438393          	addi	t2,t2,4
 69c:	00460613          	addi	a2,a2,4
 6a0:	00788663          	beq	a7,t2,6ac <md5+0x394>
 6a4:	00062703          	lw	a4,0(a2)
 6a8:	fadff06f          	j	654 <md5+0x33c>
 6ac:	02812703          	lw	a4,40(sp)
 6b0:	04012783          	lw	a5,64(sp)
 6b4:	2bc12403          	lw	s0,700(sp)
 6b8:	2b812483          	lw	s1,696(sp)
 6bc:	00f72023          	sw	a5,0(a4)
 6c0:	04412783          	lw	a5,68(sp)
 6c4:	2b412903          	lw	s2,692(sp)
 6c8:	2b012983          	lw	s3,688(sp)
 6cc:	00f72223          	sw	a5,4(a4)
 6d0:	04812783          	lw	a5,72(sp)
 6d4:	2ac12a03          	lw	s4,684(sp)
 6d8:	2a812a83          	lw	s5,680(sp)
 6dc:	00f72423          	sw	a5,8(a4)
 6e0:	04c12783          	lw	a5,76(sp)
 6e4:	2a412b03          	lw	s6,676(sp)
 6e8:	2a012b83          	lw	s7,672(sp)
 6ec:	00f72623          	sw	a5,12(a4)
 6f0:	29c12c03          	lw	s8,668(sp)
 6f4:	29812c83          	lw	s9,664(sp)
 6f8:	29412d03          	lw	s10,660(sp)
 6fc:	29012d83          	lw	s11,656(sp)
 700:	00070513          	mv	a0,a4
 704:	2c010113          	addi	sp,sp,704
 708:	00008067          	ret
 70c:	00671c13          	slli	s8,a4,0x6
 710:	03f00793          	li	a5,63
 714:	cf87cee3          	blt	a5,s8,410 <md5+0xf8>
 718:	103257b7          	lui	a5,0x10325
 71c:	47678793          	addi	a5,a5,1142 # 10325476 <__global_pointer$+0x10324012>
 720:	00f12423          	sw	a5,8(sp)
 724:	98bae7b7          	lui	a5,0x98bae
 728:	cfe78793          	addi	a5,a5,-770 # 98badcfe <__global_pointer$+0x98bac89a>
 72c:	00f12623          	sw	a5,12(sp)
 730:	efcdb7b7          	lui	a5,0xefcdb
 734:	b8978793          	addi	a5,a5,-1143 # efcdab89 <__global_pointer$+0xefcd9725>
 738:	00f12a23          	sw	a5,20(sp)
 73c:	674527b7          	lui	a5,0x67452
 740:	30178793          	addi	a5,a5,769 # 67452301 <__global_pointer$+0x67450e9d>
 744:	00f12823          	sw	a5,16(sp)
 748:	05010793          	addi	a5,sp,80
 74c:	02f12223          	sw	a5,36(sp)
 750:	04010393          	addi	t2,sp,64
 754:	ec9ff06f          	j	61c <md5+0x304>
 758:	0065c633          	xor	a2,a1,t1
 75c:	00a67633          	and	a2,a2,a0
 760:	00664633          	xor	a2,a2,t1
 764:	00ff7d13          	andi	s10,t5,15
 768:	d91ff06f          	j	4f8 <md5+0x1e0>
 76c:	0065c633          	xor	a2,a1,t1
 770:	00a64633          	xor	a2,a2,a0
 774:	00fffd13          	andi	s10,t6,15
 778:	d81ff06f          	j	4f8 <md5+0x1e0>

0000077c <memcpy>:
 77c:	00c5e7b3          	or	a5,a1,a2
 780:	00f567b3          	or	a5,a0,a5
 784:	0037f793          	andi	a5,a5,3
 788:	00c506b3          	add	a3,a0,a2
 78c:	02078463          	beqz	a5,7b4 <memcpy+0x38>
 790:	00c58633          	add	a2,a1,a2
 794:	00050793          	mv	a5,a0
 798:	02d57e63          	bgeu	a0,a3,7d4 <memcpy+0x58>
 79c:	0005c703          	lbu	a4,0(a1)
 7a0:	00158593          	addi	a1,a1,1
 7a4:	00178793          	addi	a5,a5,1
 7a8:	fee78fa3          	sb	a4,-1(a5)
 7ac:	fec598e3          	bne	a1,a2,79c <memcpy+0x20>
 7b0:	00008067          	ret
 7b4:	fed57ee3          	bgeu	a0,a3,7b0 <memcpy+0x34>
 7b8:	00050793          	mv	a5,a0
 7bc:	0005a703          	lw	a4,0(a1)
 7c0:	00478793          	addi	a5,a5,4
 7c4:	00458593          	addi	a1,a1,4
 7c8:	fee7ae23          	sw	a4,-4(a5)
 7cc:	fed7e8e3          	bltu	a5,a3,7bc <memcpy+0x40>
 7d0:	00008067          	ret
 7d4:	00008067          	ret

000007d8 <memset>:
 7d8:	ff010113          	addi	sp,sp,-16
 7dc:	00c567b3          	or	a5,a0,a2
 7e0:	00812423          	sw	s0,8(sp)
 7e4:	00112623          	sw	ra,12(sp)
 7e8:	0037f793          	andi	a5,a5,3
 7ec:	00050413          	mv	s0,a0
 7f0:	00c50733          	add	a4,a0,a2
 7f4:	02078263          	beqz	a5,818 <memset+0x40>
 7f8:	00e57663          	bgeu	a0,a4,804 <memset+0x2c>
 7fc:	0ff5f593          	andi	a1,a1,255
 800:	fd9ff0ef          	jal	ra,7d8 <memset>
 804:	00c12083          	lw	ra,12(sp)
 808:	00040513          	mv	a0,s0
 80c:	00812403          	lw	s0,8(sp)
 810:	01010113          	addi	sp,sp,16
 814:	00008067          	ret
 818:	0ff5f593          	andi	a1,a1,255
 81c:	00859693          	slli	a3,a1,0x8
 820:	00b6e5b3          	or	a1,a3,a1
 824:	01059693          	slli	a3,a1,0x10
 828:	00b6e6b3          	or	a3,a3,a1
 82c:	fce57ce3          	bgeu	a0,a4,804 <memset+0x2c>
 830:	00050793          	mv	a5,a0
 834:	00478793          	addi	a5,a5,4
 838:	fed7ae23          	sw	a3,-4(a5)
 83c:	fee7ece3          	bltu	a5,a4,834 <memset+0x5c>
 840:	00c12083          	lw	ra,12(sp)
 844:	00040513          	mv	a0,s0
 848:	00812403          	lw	s0,8(sp)
 84c:	01010113          	addi	sp,sp,16
 850:	00008067          	ret

00000854 <strlen>:
 854:	00054783          	lbu	a5,0(a0)
 858:	00078e63          	beqz	a5,874 <strlen+0x20>
 85c:	00050793          	mv	a5,a0
 860:	0017c703          	lbu	a4,1(a5)
 864:	00178793          	addi	a5,a5,1
 868:	fe071ce3          	bnez	a4,860 <strlen+0xc>
 86c:	40a78533          	sub	a0,a5,a0
 870:	00008067          	ret
 874:	00000513          	li	a0,0
 878:	00008067          	ret

0000087c <strnlen>:
 87c:	00b506b3          	add	a3,a0,a1
 880:	00050793          	mv	a5,a0
 884:	00059863          	bnez	a1,894 <strnlen+0x18>
 888:	0240006f          	j	8ac <strnlen+0x30>
 88c:	00178793          	addi	a5,a5,1
 890:	00f68a63          	beq	a3,a5,8a4 <strnlen+0x28>
 894:	0007c703          	lbu	a4,0(a5)
 898:	fe071ae3          	bnez	a4,88c <strnlen+0x10>
 89c:	40a78533          	sub	a0,a5,a0
 8a0:	00008067          	ret
 8a4:	40a68533          	sub	a0,a3,a0
 8a8:	00008067          	ret
 8ac:	00000513          	li	a0,0
 8b0:	00008067          	ret

000008b4 <strcmp>:
 8b4:	00054783          	lbu	a5,0(a0)
 8b8:	00158593          	addi	a1,a1,1
 8bc:	00150513          	addi	a0,a0,1
 8c0:	fff5c703          	lbu	a4,-1(a1)
 8c4:	00078863          	beqz	a5,8d4 <strcmp+0x20>
 8c8:	fee786e3          	beq	a5,a4,8b4 <strcmp>
 8cc:	40e78533          	sub	a0,a5,a4
 8d0:	00008067          	ret
 8d4:	00000793          	li	a5,0
 8d8:	ff5ff06f          	j	8cc <strcmp+0x18>

000008dc <strcpy>:
 8dc:	00050793          	mv	a5,a0
 8e0:	0005c703          	lbu	a4,0(a1)
 8e4:	00178793          	addi	a5,a5,1
 8e8:	00158593          	addi	a1,a1,1
 8ec:	fee78fa3          	sb	a4,-1(a5)
 8f0:	fe0718e3          	bnez	a4,8e0 <strcpy+0x4>
 8f4:	00008067          	ret

000008f8 <atol>:
 8f8:	00054703          	lbu	a4,0(a0)
 8fc:	02000693          	li	a3,32
 900:	00050793          	mv	a5,a0
 904:	00d71863          	bne	a4,a3,914 <atol+0x1c>
 908:	0017c703          	lbu	a4,1(a5)
 90c:	00178793          	addi	a5,a5,1
 910:	fed70ce3          	beq	a4,a3,908 <atol+0x10>
 914:	02d00693          	li	a3,45
 918:	06d70063          	beq	a4,a3,978 <atol+0x80>
 91c:	02b00693          	li	a3,43
 920:	04d70063          	beq	a4,a3,960 <atol+0x68>
 924:	0007c683          	lbu	a3,0(a5)
 928:	00000593          	li	a1,0
 92c:	04068263          	beqz	a3,970 <atol+0x78>
 930:	00000513          	li	a0,0
 934:	00178793          	addi	a5,a5,1
 938:	fd068613          	addi	a2,a3,-48
 93c:	00251713          	slli	a4,a0,0x2
 940:	0007c683          	lbu	a3,0(a5)
 944:	00a70533          	add	a0,a4,a0
 948:	00151513          	slli	a0,a0,0x1
 94c:	00a60533          	add	a0,a2,a0
 950:	fe0692e3          	bnez	a3,934 <atol+0x3c>
 954:	02058063          	beqz	a1,974 <atol+0x7c>
 958:	40a00533          	neg	a0,a0
 95c:	00008067          	ret
 960:	0017c683          	lbu	a3,1(a5)
 964:	00000593          	li	a1,0
 968:	00178793          	addi	a5,a5,1
 96c:	fc0692e3          	bnez	a3,930 <atol+0x38>
 970:	00000513          	li	a0,0
 974:	00008067          	ret
 978:	0017c683          	lbu	a3,1(a5)
 97c:	00100593          	li	a1,1
 980:	00178793          	addi	a5,a5,1
 984:	fa0696e3          	bnez	a3,930 <atol+0x38>
 988:	00000513          	li	a0,0
 98c:	fe9ff06f          	j	974 <atol+0x7c>

00000990 <__int_handler>:
 990:	00251693          	slli	a3,a0,0x2
 994:	00000717          	auipc	a4,0x0
 998:	2a870713          	addi	a4,a4,680 # c3c <isr>
 99c:	00d70733          	add	a4,a4,a3
 9a0:	00072703          	lw	a4,0(a4)
 9a4:	fff00693          	li	a3,-1
 9a8:	00d70863          	beq	a4,a3,9b8 <__int_handler+0x28>
 9ac:	00900693          	li	a3,9
 9b0:	00a6c463          	blt	a3,a0,9b8 <__int_handler+0x28>
 9b4:	00070067          	jr	a4
 9b8:	00008067          	ret

000009bc <ConnectISR>:
 9bc:	00900793          	li	a5,9
 9c0:	02a7c063          	blt	a5,a0,9e0 <ConnectISR+0x24>
 9c4:	00000797          	auipc	a5,0x0
 9c8:	27878793          	addi	a5,a5,632 # c3c <isr>
 9cc:	00251513          	slli	a0,a0,0x2
 9d0:	00a78533          	add	a0,a5,a0
 9d4:	00b52023          	sw	a1,0(a0)
 9d8:	00000513          	li	a0,0
 9dc:	00008067          	ret
 9e0:	fff00513          	li	a0,-1
 9e4:	00008067          	ret

Disassembly of section .text.startup:

000009e8 <main>:
 9e8:	fe010113          	addi	sp,sp,-32
 9ec:	00c00613          	li	a2,12
 9f0:	00000597          	auipc	a1,0x0
 9f4:	23c58593          	addi	a1,a1,572 # c2c <main+0x244>
 9f8:	00010513          	mv	a0,sp
 9fc:	00112e23          	sw	ra,28(sp)
 a00:	919ff0ef          	jal	ra,318 <md5>
 a04:	00012703          	lw	a4,0(sp)
 a08:	000067b7          	lui	a5,0x6
 a0c:	00e7a023          	sw	a4,0(a5) # 6000 <__global_pointer$+0x4b9c>
 a10:	00412703          	lw	a4,4(sp)
 a14:	00e7a223          	sw	a4,4(a5)
 a18:	00812703          	lw	a4,8(sp)
 a1c:	00e7a423          	sw	a4,8(a5)
 a20:	00c12703          	lw	a4,12(sp)
 a24:	00e7a623          	sw	a4,12(a5)
 a28:	0000006f          	j	a28 <main+0x40>
